target datalayout = "e-m:e-p270:32:32-p271:32:32-p272:64:64-i64:64-i128:128-f80:128-n8:16:32:64-S128"
target triple = "x86_64-pc-linux-gnu"

@decode_init_uvlc.dec = internal constant [8 x i8] c"\B7!B!g!B!", align 1

; Function Attrs: inlinehint nounwind uwtable
define internal i32 @decode_init_uvlc(i32 noundef %0, i32 noundef %1, ptr noundef %2) #4 {
  %4 = alloca i32, align 4
  %5 = alloca i32, align 4
  %6 = alloca ptr, align 8
  %7 = alloca i32, align 4
  %8 = alloca i32, align 4
  %9 = alloca i32, align 4
  %10 = alloca i32, align 4
  %11 = alloca i32, align 4
  %12 = alloca i32, align 4
  %13 = alloca i32, align 4
  %14 = alloca i32, align 4
  %15 = alloca i32, align 4
  %16 = alloca i32, align 4
  store i32 %0, ptr %4, align 4, !tbaa !10
  store i32 %1, ptr %5, align 4, !tbaa !10
  store ptr %2, ptr %6, align 8, !tbaa !44
  call void @llvm.lifetime.start.p0(i64 4, ptr %7) #7
  store i32 0, ptr %7, align 4, !tbaa !10
  %17 = load i32, ptr %5, align 4, !tbaa !10
  %18 = icmp eq i32 %17, 0
  br i1 %18, label %19, label %24

19:                                               ; preds = %3
  %20 = load ptr, ptr %6, align 8, !tbaa !44
  %21 = getelementptr inbounds i32, ptr %20, i64 1
  store i32 1, ptr %21, align 4, !tbaa !10
  %22 = load ptr, ptr %6, align 8, !tbaa !44
  %23 = getelementptr inbounds i32, ptr %22, i64 0
  store i32 1, ptr %23, align 4, !tbaa !10
  br label %255

24:                                               ; preds = %3
  %25 = load i32, ptr %5, align 4, !tbaa !10
  %26 = icmp ule i32 %25, 2
  br i1 %26, label %27, label %76

27:                                               ; preds = %24
  call void @llvm.lifetime.start.p0(i64 4, ptr %8) #7
  call void @llvm.lifetime.start.p0(i64 4, ptr %9) #7
  %28 = load i32, ptr %4, align 4, !tbaa !10
  %29 = and i32 %28, 7
  %30 = zext i32 %29 to i64
  %31 = getelementptr inbounds nuw [8 x i8], ptr @decode_init_uvlc.dec, i64 0, i64 %30
  %32 = load i8, ptr %31, align 1, !tbaa !51
  %33 = zext i8 %32 to i32
  store i32 %33, ptr %8, align 4, !tbaa !10
  %34 = load i32, ptr %8, align 4, !tbaa !10
  %35 = and i32 %34, 3
  %36 = load i32, ptr %4, align 4, !tbaa !10
  %37 = lshr i32 %36, %35
  store i32 %37, ptr %4, align 4, !tbaa !10
  %38 = load i32, ptr %8, align 4, !tbaa !10
  %39 = and i32 %38, 3
  %40 = load i32, ptr %7, align 4, !tbaa !10
  %41 = add i32 %40, %39
  store i32 %41, ptr %7, align 4, !tbaa !10
  %42 = load i32, ptr %8, align 4, !tbaa !10
  %43 = lshr i32 %42, 2
  %44 = and i32 %43, 7
  store i32 %44, ptr %9, align 4, !tbaa !10
  %45 = load i32, ptr %9, align 4, !tbaa !10
  %46 = load i32, ptr %7, align 4, !tbaa !10
  %47 = add i32 %46, %45
  store i32 %47, ptr %7, align 4, !tbaa !10
  %48 = load i32, ptr %8, align 4, !tbaa !10
  %49 = lshr i32 %48, 5
  %50 = load i32, ptr %4, align 4, !tbaa !10
  %51 = load i32, ptr %9, align 4, !tbaa !10
  %52 = shl i32 1, %51
  %53 = sub i32 %52, 1
  %54 = and i32 %50, %53
  %55 = add i32 %49, %54
  store i32 %55, ptr %8, align 4, !tbaa !10
  %56 = load i32, ptr %5, align 4, !tbaa !10
  %57 = icmp eq i32 %56, 1
  br i1 %57, label %58, label %61

58:                                               ; preds = %27
  %59 = load i32, ptr %8, align 4, !tbaa !10
  %60 = add i32 %59, 1
  br label %62

61:                                               ; preds = %27
  br label %62

62:                                               ; preds = %61, %58
  %63 = phi i32 [ %60, %58 ], [ 1, %61 ]
  %64 = load ptr, ptr %6, align 8, !tbaa !44
  %65 = getelementptr inbounds i32, ptr %64, i64 0
  store i32 %63, ptr %65, align 4, !tbaa !10
  %66 = load i32, ptr %5, align 4, !tbaa !10
  %67 = icmp eq i32 %66, 1
  br i1 %67, label %68, label %69

68:                                               ; preds = %62
  br label %72

69:                                               ; preds = %62
  %70 = load i32, ptr %8, align 4, !tbaa !10
  %71 = add i32 %70, 1
  br label %72

72:                                               ; preds = %69, %68
  %73 = phi i32 [ 1, %68 ], [ %71, %69 ]
  %74 = load ptr, ptr %6, align 8, !tbaa !44
  %75 = getelementptr inbounds i32, ptr %74, i64 1
  store i32 %73, ptr %75, align 4, !tbaa !10
  call void @llvm.lifetime.end.p0(i64 4, ptr %9) #7
  call void @llvm.lifetime.end.p0(i64 4, ptr %8) #7
  br label %254

76:                                               ; preds = %24
  %77 = load i32, ptr %5, align 4, !tbaa !10
  %78 = icmp eq i32 %77, 3
  br i1 %78, label %79, label %181

79:                                               ; preds = %76
  call void @llvm.lifetime.start.p0(i64 4, ptr %10) #7
  %80 = load i32, ptr %4, align 4, !tbaa !10
  %81 = and i32 %80, 7
  %82 = zext i32 %81 to i64
  %83 = getelementptr inbounds nuw [8 x i8], ptr @decode_init_uvlc.dec, i64 0, i64 %82
  %84 = load i8, ptr %83, align 1, !tbaa !51
  %85 = zext i8 %84 to i32
  store i32 %85, ptr %10, align 4, !tbaa !10
  %86 = load i32, ptr %10, align 4, !tbaa !10
  %87 = and i32 %86, 3
  %88 = load i32, ptr %4, align 4, !tbaa !10
  %89 = lshr i32 %88, %87
  store i32 %89, ptr %4, align 4, !tbaa !10
  %90 = load i32, ptr %10, align 4, !tbaa !10
  %91 = and i32 %90, 3
  %92 = load i32, ptr %7, align 4, !tbaa !10
  %93 = add i32 %92, %91
  store i32 %93, ptr %7, align 4, !tbaa !10
  %94 = load i32, ptr %10, align 4, !tbaa !10
  %95 = and i32 %94, 3
  %96 = icmp ugt i32 %95, 2
  br i1 %96, label %97, label %126

97:                                               ; preds = %79
  call void @llvm.lifetime.start.p0(i64 4, ptr %11) #7
  %98 = load i32, ptr %4, align 4, !tbaa !10
  %99 = and i32 %98, 1
  %100 = add i32 %99, 1
  %101 = add i32 %100, 1
  %102 = load ptr, ptr %6, align 8, !tbaa !44
  %103 = getelementptr inbounds i32, ptr %102, i64 1
  store i32 %101, ptr %103, align 4, !tbaa !10
  %104 = load i32, ptr %7, align 4, !tbaa !10
  %105 = add i32 %104, 1
  store i32 %105, ptr %7, align 4, !tbaa !10
  %106 = load i32, ptr %4, align 4, !tbaa !10
  %107 = lshr i32 %106, 1
  store i32 %107, ptr %4, align 4, !tbaa !10
  %108 = load i32, ptr %10, align 4, !tbaa !10
  %109 = lshr i32 %108, 2
  %110 = and i32 %109, 7
  store i32 %110, ptr %11, align 4, !tbaa !10
  %111 = load i32, ptr %11, align 4, !tbaa !10
  %112 = load i32, ptr %7, align 4, !tbaa !10
  %113 = add i32 %112, %111
  store i32 %113, ptr %7, align 4, !tbaa !10
  %114 = load i32, ptr %10, align 4, !tbaa !10
  %115 = lshr i32 %114, 5
  %116 = load i32, ptr %4, align 4, !tbaa !10
  %117 = load i32, ptr %11, align 4, !tbaa !10
  %118 = shl i32 1, %117
  %119 = sub i32 %118, 1
  %120 = and i32 %116, %119
  %121 = add i32 %115, %120
  store i32 %121, ptr %10, align 4, !tbaa !10
  %122 = load i32, ptr %10, align 4, !tbaa !10
  %123 = add i32 %122, 1
  %124 = load ptr, ptr %6, align 8, !tbaa !44
  %125 = getelementptr inbounds i32, ptr %124, i64 0
  store i32 %123, ptr %125, align 4, !tbaa !10
  call void @llvm.lifetime.end.p0(i64 4, ptr %11) #7
  br label %180

126:                                              ; preds = %79
  call void @llvm.lifetime.start.p0(i64 4, ptr %12) #7
  call void @llvm.lifetime.start.p0(i64 4, ptr %13) #7
  %127 = load i32, ptr %4, align 4, !tbaa !10
  %128 = and i32 %127, 7
  %129 = zext i32 %128 to i64
  %130 = getelementptr inbounds nuw [8 x i8], ptr @decode_init_uvlc.dec, i64 0, i64 %129
  %131 = load i8, ptr %130, align 1, !tbaa !51
  %132 = zext i8 %131 to i32
  store i32 %132, ptr %12, align 4, !tbaa !10
  %133 = load i32, ptr %12, align 4, !tbaa !10
  %134 = and i32 %133, 3
  %135 = load i32, ptr %4, align 4, !tbaa !10
  %136 = lshr i32 %135, %134
  store i32 %136, ptr %4, align 4, !tbaa !10
  %137 = load i32, ptr %12, align 4, !tbaa !10
  %138 = and i32 %137, 3
  %139 = load i32, ptr %7, align 4, !tbaa !10
  %140 = add i32 %139, %138
  store i32 %140, ptr %7, align 4, !tbaa !10
  %141 = load i32, ptr %10, align 4, !tbaa !10
  %142 = lshr i32 %141, 2
  %143 = and i32 %142, 7
  store i32 %143, ptr %13, align 4, !tbaa !10
  %144 = load i32, ptr %13, align 4, !tbaa !10
  %145 = load i32, ptr %7, align 4, !tbaa !10
  %146 = add i32 %145, %144
  store i32 %146, ptr %7, align 4, !tbaa !10
  %147 = load i32, ptr %10, align 4, !tbaa !10
  %148 = lshr i32 %147, 5
  %149 = load i32, ptr %4, align 4, !tbaa !10
  %150 = load i32, ptr %13, align 4, !tbaa !10
  %151 = shl i32 1, %150
  %152 = sub i32 %151, 1
  %153 = and i32 %149, %152
  %154 = add i32 %148, %153
  store i32 %154, ptr %10, align 4, !tbaa !10
  %155 = load i32, ptr %10, align 4, !tbaa !10
  %156 = add i32 %155, 1
  %157 = load ptr, ptr %6, align 8, !tbaa !44
  %158 = getelementptr inbounds i32, ptr %157, i64 0
  store i32 %156, ptr %158, align 4, !tbaa !10
  %159 = load i32, ptr %13, align 4, !tbaa !10
  %160 = load i32, ptr %4, align 4, !tbaa !10
  %161 = lshr i32 %160, %159
  store i32 %161, ptr %4, align 4, !tbaa !10
  %162 = load i32, ptr %12, align 4, !tbaa !10
  %163 = lshr i32 %162, 2
  %164 = and i32 %163, 7
  store i32 %164, ptr %13, align 4, !tbaa !10
  %165 = load i32, ptr %13, align 4, !tbaa !10
  %166 = load i32, ptr %7, align 4, !tbaa !10
  %167 = add i32 %166, %165
  store i32 %167, ptr %7, align 4, !tbaa !10
  %168 = load i32, ptr %12, align 4, !tbaa !10
  %169 = lshr i32 %168, 5
  %170 = load i32, ptr %4, align 4, !tbaa !10
  %171 = load i32, ptr %13, align 4, !tbaa !10
  %172 = shl i32 1, %171
  %173 = sub i32 %172, 1
  %174 = and i32 %170, %173
  %175 = add i32 %169, %174
  store i32 %175, ptr %12, align 4, !tbaa !10
  %176 = load i32, ptr %12, align 4, !tbaa !10
  %177 = add i32 %176, 1
  %178 = load ptr, ptr %6, align 8, !tbaa !44
  %179 = getelementptr inbounds i32, ptr %178, i64 1
  store i32 %177, ptr %179, align 4, !tbaa !10
  call void @llvm.lifetime.end.p0(i64 4, ptr %13) #7
  call void @llvm.lifetime.end.p0(i64 4, ptr %12) #7
  br label %180

180:                                              ; preds = %126, %97
  call void @llvm.lifetime.end.p0(i64 4, ptr %10) #7
  br label %253

181:                                              ; preds = %76
  %182 = load i32, ptr %5, align 4, !tbaa !10
  %183 = icmp eq i32 %182, 4
  br i1 %183, label %184, label %252

184:                                              ; preds = %181
  call void @llvm.lifetime.start.p0(i64 4, ptr %14) #7
  call void @llvm.lifetime.start.p0(i64 4, ptr %15) #7
  call void @llvm.lifetime.start.p0(i64 4, ptr %16) #7
  %185 = load i32, ptr %4, align 4, !tbaa !10
  %186 = and i32 %185, 7
  %187 = zext i32 %186 to i64
  %188 = getelementptr inbounds nuw [8 x i8], ptr @decode_init_uvlc.dec, i64 0, i64 %187
  %189 = load i8, ptr %188, align 1, !tbaa !51
  %190 = zext i8 %189 to i32
  store i32 %190, ptr %14, align 4, !tbaa !10
  %191 = load i32, ptr %14, align 4, !tbaa !10
  %192 = and i32 %191, 3
  %193 = load i32, ptr %4, align 4, !tbaa !10
  %194 = lshr i32 %193, %192
  store i32 %194, ptr %4, align 4, !tbaa !10
  %195 = load i32, ptr %14, align 4, !tbaa !10
  %196 = and i32 %195, 3
  %197 = load i32, ptr %7, align 4, !tbaa !10
  %198 = add i32 %197, %196
  store i32 %198, ptr %7, align 4, !tbaa !10
  %199 = load i32, ptr %4, align 4, !tbaa !10
  %200 = and i32 %199, 7
  %201 = zext i32 %200 to i64
  %202 = getelementptr inbounds nuw [8 x i8], ptr @decode_init_uvlc.dec, i64 0, i64 %201
  %203 = load i8, ptr %202, align 1, !tbaa !51
  %204 = zext i8 %203 to i32
  store i32 %204, ptr %15, align 4, !tbaa !10
  %205 = load i32, ptr %15, align 4, !tbaa !10
  %206 = and i32 %205, 3
  %207 = load i32, ptr %4, align 4, !tbaa !10
  %208 = lshr i32 %207, %206
  store i32 %208, ptr %4, align 4, !tbaa !10
  %209 = load i32, ptr %15, align 4, !tbaa !10
  %210 = and i32 %209, 3
  %211 = load i32, ptr %7, align 4, !tbaa !10
  %212 = add i32 %211, %210
  store i32 %212, ptr %7, align 4, !tbaa !10
  %213 = load i32, ptr %14, align 4, !tbaa !10
  %214 = lshr i32 %213, 2
  %215 = and i32 %214, 7
  store i32 %215, ptr %16, align 4, !tbaa !10
  %216 = load i32, ptr %16, align 4, !tbaa !10
  %217 = load i32, ptr %7, align 4, !tbaa !10
  %218 = add i32 %217, %216
  store i32 %218, ptr %7, align 4, !tbaa !10
  %219 = load i32, ptr %14, align 4, !tbaa !10
  %220 = lshr i32 %219, 5
  %221 = load i32, ptr %4, align 4, !tbaa !10
  %222 = load i32, ptr %16, align 4, !tbaa !10
  %223 = shl i32 1, %222
  %224 = sub i32 %223, 1
  %225 = and i32 %221, %224
  %226 = add i32 %220, %225
  store i32 %226, ptr %14, align 4, !tbaa !10
  %227 = load i32, ptr %14, align 4, !tbaa !10
  %228 = add i32 %227, 3
  %229 = load ptr, ptr %6, align 8, !tbaa !44
  %230 = getelementptr inbounds i32, ptr %229, i64 0
  store i32 %228, ptr %230, align 4, !tbaa !10
  %231 = load i32, ptr %16, align 4, !tbaa !10
  %232 = load i32, ptr %4, align 4, !tbaa !10
  %233 = lshr i32 %232, %231
  store i32 %233, ptr %4, align 4, !tbaa !10
  %234 = load i32, ptr %15, align 4, !tbaa !10
  %235 = lshr i32 %234, 2
  %236 = and i32 %235, 7
  store i32 %236, ptr %16, align 4, !tbaa !10
  %237 = load i32, ptr %16, align 4, !tbaa !10
  %238 = load i32, ptr %7, align 4, !tbaa !10
  %239 = add i32 %238, %237
  store i32 %239, ptr %7, align 4, !tbaa !10
  %240 = load i32, ptr %15, align 4, !tbaa !10
  %241 = lshr i32 %240, 5
  %242 = load i32, ptr %4, align 4, !tbaa !10
  %243 = load i32, ptr %16, align 4, !tbaa !10
  %244 = shl i32 1, %243
  %245 = sub i32 %244, 1
  %246 = and i32 %242, %245
  %247 = add i32 %241, %246
  store i32 %247, ptr %15, align 4, !tbaa !10
  %248 = load i32, ptr %15, align 4, !tbaa !10
  %249 = add i32 %248, 3
  %250 = load ptr, ptr %6, align 8, !tbaa !44
  %251 = getelementptr inbounds i32, ptr %250, i64 1
  store i32 %249, ptr %251, align 4, !tbaa !10
  call void @llvm.lifetime.end.p0(i64 4, ptr %16) #7
  call void @llvm.lifetime.end.p0(i64 4, ptr %15) #7
  call void @llvm.lifetime.end.p0(i64 4, ptr %14) #7
  br label %252

252:                                              ; preds = %184, %181
  br label %253

253:                                              ; preds = %252, %180
  br label %254

254:                                              ; preds = %253, %72
  br label %255

255:                                              ; preds = %254, %19
  %256 = load i32, ptr %7, align 4, !tbaa !10
  call void @llvm.lifetime.end.p0(i64 4, ptr %7) #7
  ret i32 %256
}