; Function Attrs: inlinehint mustprogress nofree norecurse nosync nounwind willreturn memory(argmem: write) uwtable
define internal fastcc range(i32 0, 21) i32 @decode_init_uvlc(i32 noundef %0, i32 noundef range(i32 0, 5) %1, ptr noundef nonnull writeonly captures(none) initializes((0, 8)) %2) unnamed_addr #6 {
  %4 = icmp eq i32 %1, 0
  br i1 %4, label %5, label %7

5:                                                ; preds = %3
  %6 = getelementptr inbounds nuw i8, ptr %2, i64 4
  store i32 1, ptr %6, align 4, !tbaa !51
  store i32 1, ptr %2, align 4, !tbaa !51
  br label %107

7:                                                ; preds = %3
  %8 = icmp samesign ult i32 %1, 3
  br i1 %8, label %9, label %29

9:                                                ; preds = %7
  %10 = and i32 %0, 7
  %11 = zext nneg i32 %10 to i64
  %12 = getelementptr inbounds nuw [8 x i8], ptr @decode_noninit_uvlc.dec, i64 0, i64 %11
  %13 = load i8, ptr %12, align 1, !tbaa !44
  %14 = zext i8 %13 to i32
  %15 = and i32 %14, 3
  %16 = lshr i32 %0, %15
  %17 = lshr i32 %14, 2
  %18 = and i32 %17, 7
  %19 = add nuw nsw i32 %18, %15
  %20 = lshr i32 %14, 5
  %notmask99 = shl nsw i32 -1, %18
  %21 = xor i32 %notmask99, -1
  %22 = and i32 %16, %21
  %23 = icmp eq i32 %1, 1
  %24 = add nuw nsw i32 %20, 1
  %25 = add nuw nsw i32 %24, %22
  %26 = select i1 %23, i32 %25, i32 1
  store i32 %26, ptr %2, align 4, !tbaa !51
  %27 = select i1 %23, i32 1, i32 %25
  %28 = getelementptr inbounds nuw i8, ptr %2, i64 4
  store i32 %27, ptr %28, align 4, !tbaa !51
  br label %107

29:                                               ; preds = %7
  %30 = icmp eq i32 %1, 3
  %31 = and i32 %0, 7
  %32 = zext nneg i32 %31 to i64
  %33 = getelementptr inbounds nuw [8 x i8], ptr @decode_noninit_uvlc.dec, i64 0, i64 %32
  %34 = load i8, ptr %33, align 1, !tbaa !44
  %35 = zext i8 %34 to i32
  %36 = and i32 %35, 3
  %37 = lshr i32 %0, %36
  br i1 %30, label %38, label %80

38:                                               ; preds = %29
  %39 = icmp eq i32 %36, 3
  br i1 %39, label %40, label %53

40:                                               ; preds = %38
  %41 = and i32 %37, 1
  %42 = or disjoint i32 %41, 2
  %43 = getelementptr inbounds nuw i8, ptr %2, i64 4
  store i32 %42, ptr %43, align 4, !tbaa !51
  %44 = lshr i32 %37, 1
  %45 = lshr i32 %35, 2
  %46 = and i32 %45, 7
  %47 = add nuw nsw i32 %46, 4
  %48 = lshr i32 %35, 5
  %notmask98 = shl nsw i32 -1, %46
  %49 = xor i32 %notmask98, -1
  %50 = and i32 %44, %49
  %51 = add nuw nsw i32 %48, 1
  %52 = add nuw nsw i32 %51, %50
  store i32 %52, ptr %2, align 4, !tbaa !51
  br label %107

53:                                               ; preds = %38
  %54 = and i32 %37, 7
  %55 = zext nneg i32 %54 to i64
  %56 = getelementptr inbounds nuw [8 x i8], ptr @decode_noninit_uvlc.dec, i64 0, i64 %55
  %57 = load i8, ptr %56, align 1, !tbaa !44
  %58 = zext i8 %57 to i32
  %59 = and i32 %58, 3
  %60 = lshr i32 %37, %59
  %61 = lshr i32 %35, 2
  %62 = and i32 %61, 7
  %63 = lshr i32 %35, 5
  %notmask96 = shl nsw i32 -1, %62
  %64 = xor i32 %notmask96, -1
  %65 = and i32 %60, %64
  %66 = add nuw nsw i32 %63, 1
  %67 = add nuw nsw i32 %66, %65
  store i32 %67, ptr %2, align 4, !tbaa !51
  %68 = lshr i32 %60, %62
  %69 = lshr i32 %58, 2
  %70 = and i32 %69, 7
  %71 = add nuw nsw i32 %62, %36
  %72 = add nuw nsw i32 %71, %59
  %73 = add nuw nsw i32 %72, %70
  %74 = lshr i32 %58, 5
  %notmask97 = shl nsw i32 -1, %70
  %75 = xor i32 %notmask97, -1
  %76 = and i32 %68, %75
  %77 = add nuw nsw i32 %74, 1
  %78 = add nuw nsw i32 %77, %76
  %79 = getelementptr inbounds nuw i8, ptr %2, i64 4
  store i32 %78, ptr %79, align 4, !tbaa !51
  br label %107

80:                                               ; preds = %29
  %81 = and i32 %37, 7
  %82 = zext nneg i32 %81 to i64
  %83 = getelementptr inbounds nuw [8 x i8], ptr @decode_noninit_uvlc.dec, i64 0, i64 %82
  %84 = load i8, ptr %83, align 1, !tbaa !44
  %85 = zext i8 %84 to i32
  %86 = and i32 %85, 3
  %87 = lshr i32 %37, %86
  %88 = add nuw nsw i32 %86, %36
  %89 = lshr i32 %35, 2
  %90 = and i32 %89, 7
  %91 = add nuw nsw i32 %88, %90
  %92 = lshr i32 %35, 5
  %notmask = shl nsw i32 -1, %90
  %93 = xor i32 %notmask, -1
  %94 = and i32 %87, %93
  %95 = add nuw nsw i32 %92, 3
  %96 = add nuw nsw i32 %95, %94
  store i32 %96, ptr %2, align 4, !tbaa !51
  %97 = lshr i32 %87, %90
  %98 = lshr i32 %85, 2
  %99 = and i32 %98, 7
  %100 = add nuw nsw i32 %91, %99
  %101 = lshr i32 %85, 5
  %notmask95 = shl nsw i32 -1, %99
  %102 = xor i32 %notmask95, -1
  %103 = and i32 %97, %102
  %104 = add nuw nsw i32 %101, 3
  %105 = add nuw nsw i32 %104, %103
  %106 = getelementptr inbounds nuw i8, ptr %2, i64 4
  store i32 %105, ptr %106, align 4, !tbaa !51
  br label %107

107:                                              ; preds = %40, %53, %9, %80, %5
  %.0 = phi i32 [ 0, %5 ], [ %19, %9 ], [ %100, %80 ], [ %47, %40 ], [ %73, %53 ]
  ret i32 %.0
}